target datalayout = "e-m:e-p270:32:32-p271:32:32-p272:64:64-i64:64-i128:128-f80:128-n8:16:32:64-S128"
target triple = "x86_64-pc-linux-gnu"

%struct.H5T_t = type { %struct.H5O_shared_t, ptr, %struct.H5O_loc_t, %struct.H5G_name_t, ptr }
%struct.H5O_shared_t = type { i32, ptr, i32, %union.anon }
%union.anon = type { %struct.H5O_mesg_loc_t }
%struct.H5O_mesg_loc_t = type { i32, i64 }
%struct.H5O_loc_t = type { ptr, i64, i8 }
%struct.H5G_name_t = type { ptr, ptr, i32 }
%struct.H5T_shared_t = type { i64, i32, i32, i64, i32, i8, ptr, ptr, %union.anon.0 }
%union.anon.0 = type { %struct.H5T_array_t }
%struct.H5T_array_t = type { i64, i32, [32 x i64] }
%struct.H5T_opaque_t = type { ptr }

@H5_libinit_g = external global i8, align 1
@H5_libterm_g = external global i8, align 1
@.str = private unnamed_addr constant [103 x i8] c"generated/home/dtcxzyw/WorkSpace/Projects/compilers/llvm-opt-benchmark/bench/hdf5/hdf5/src/H5Topaque.c\00", align 1
@H5E_FUNC_g = external global i64, align 8
@H5E_CANTINIT_g = external global i64, align 8
@.str.1 = private unnamed_addr constant [30 x i8] c"library initialization failed\00", align 1
@H5E_CANTSET_g = external global i64, align 8
@.str.2 = private unnamed_addr constant [22 x i8] c"can't set API context\00", align 1
@H5E_ARGS_g = external global i64, align 8
@H5E_BADTYPE_g = external global i64, align 8
@.str.3 = private unnamed_addr constant [16 x i8] c"not a data type\00", align 1
@__func__.H5Tget_tag = private unnamed_addr constant [11 x i8] c"H5Tget_tag\00", align 1
@H5E_DATATYPE_g = external global i64, align 8
@.str.8 = private unnamed_addr constant [42 x i8] c"operation not defined for data type class\00", align 1
@H5E_RESOURCE_g = external global i64, align 8
@H5E_NOSPACE_g = external global i64, align 8
@.str.9 = private unnamed_addr constant [25 x i8] c"memory allocation failed\00", align 1

; Function Attrs: nounwind uwtable
define ptr @H5Tget_tag(i64 noundef %0) #0 {
  %2 = alloca i64, align 8
  %3 = alloca ptr, align 8
  %4 = alloca ptr, align 8
  %5 = alloca i8, align 1
  %6 = alloca i8, align 1
  store i64 %0, ptr %2, align 8
  store ptr null, ptr %3, align 8
  store i8 0, ptr %5, align 1
  store i8 0, ptr %6, align 1
  %7 = load i8, ptr @H5_libinit_g, align 1
  %8 = trunc i8 %7 to i1
  br i1 %8, label %13, label %9

9:                                                ; preds = %1
  %10 = load i8, ptr @H5_libterm_g, align 1
  %11 = trunc i8 %10 to i1
  %12 = xor i1 %11, true
  br label %13

13:                                               ; preds = %9, %1
  %14 = phi i1 [ false, %1 ], [ %12, %9 ]
  %15 = xor i1 %14, true
  %16 = xor i1 %15, true
  %17 = zext i1 %16 to i32
  %18 = sext i32 %17 to i64
  %19 = icmp ne i64 %18, 0
  br i1 %19, label %20, label %44

20:                                               ; preds = %13
  %21 = call i32 @H5_init_library()
  %22 = icmp slt i32 %21, 0
  %23 = xor i1 %22, true
  %24 = xor i1 %23, true
  %25 = zext i1 %24 to i32
  %26 = sext i32 %25 to i64
  %27 = icmp ne i64 %26, 0
  br i1 %27, label %28, label %43

28:                                               ; preds = %20
  br label %29

29:                                               ; preds = %28
  br label %30

30:                                               ; preds = %29
  br label %31

31:                                               ; preds = %30
  %32 = load i64, ptr @H5E_FUNC_g, align 8
  %33 = load i64, ptr @H5E_CANTINIT_g, align 8
  %34 = call i32 (ptr, ptr, i32, i64, i64, ptr, ...) @H5E_printf_stack(ptr noundef @.str, ptr noundef @__func__.H5Tget_tag, i32 noundef 81, i64 noundef %32, i64 noundef %33, ptr noundef @.str.1)
  br label %35

35:                                               ; preds = %31
  store i8 1, ptr %6, align 1
  %36 = load i8, ptr %6, align 1
  %37 = trunc i8 %36 to i1
  %38 = zext i1 %37 to i8
  store i8 %38, ptr %6, align 1
  br label %39

39:                                               ; preds = %35
  br label %40

40:                                               ; preds = %39
  store ptr null, ptr %4, align 8
  br label %149

41:                                               ; No predecessors!
  br label %42

42:                                               ; preds = %41
  br label %43

43:                                               ; preds = %42, %20
  br label %44

44:                                               ; preds = %43, %13
  %45 = call i32 @H5CX_push()
  %46 = icmp slt i32 %45, 0
  %47 = xor i1 %46, true
  %48 = xor i1 %47, true
  %49 = zext i1 %48 to i32
  %50 = sext i32 %49 to i64
  %51 = icmp ne i64 %50, 0
  br i1 %51, label %52, label %67

52:                                               ; preds = %44
  br label %53

53:                                               ; preds = %52
  br label %54

54:                                               ; preds = %53
  br label %55

55:                                               ; preds = %54
  %56 = load i64, ptr @H5E_FUNC_g, align 8
  %57 = load i64, ptr @H5E_CANTSET_g, align 8
  %58 = call i32 (ptr, ptr, i32, i64, i64, ptr, ...) @H5E_printf_stack(ptr noundef @.str, ptr noundef @__func__.H5Tget_tag, i32 noundef 81, i64 noundef %56, i64 noundef %57, ptr noundef @.str.2)
  br label %59

59:                                               ; preds = %55
  store i8 1, ptr %6, align 1
  %60 = load i8, ptr %6, align 1
  %61 = trunc i8 %60 to i1
  %62 = zext i1 %61 to i8
  store i8 %62, ptr %6, align 1
  br label %63

63:                                               ; preds = %59
  br label %64

64:                                               ; preds = %63
  store ptr null, ptr %4, align 8
  br label %149

65:                                               ; No predecessors!
  br label %66

66:                                               ; preds = %65
  br label %68

67:                                               ; preds = %44
  store i8 1, ptr %5, align 1
  br label %68

68:                                               ; preds = %67, %66
  %69 = call i32 @H5E_clear_stack()
  %70 = load i64, ptr %2, align 8
  %71 = call ptr @H5I_object_verify(i64 noundef %70, i32 noundef 3)
  store ptr %71, ptr %3, align 8
  %72 = icmp eq ptr null, %71
  br i1 %72, label %73, label %88

73:                                               ; preds = %68
  br label %74

74:                                               ; preds = %73
  br label %75

75:                                               ; preds = %74
  br label %76

76:                                               ; preds = %75
  %77 = load i64, ptr @H5E_ARGS_g, align 8
  %78 = load i64, ptr @H5E_BADTYPE_g, align 8
  %79 = call i32 (ptr, ptr, i32, i64, i64, ptr, ...) @H5E_printf_stack(ptr noundef @.str, ptr noundef @__func__.H5Tget_tag, i32 noundef 85, i64 noundef %77, i64 noundef %78, ptr noundef @.str.3)
  br label %80

80:                                               ; preds = %76
  store i8 1, ptr %6, align 1
  %81 = load i8, ptr %6, align 1
  %82 = trunc i8 %81 to i1
  %83 = zext i1 %82 to i8
  store i8 %83, ptr %6, align 1
  br label %84

84:                                               ; preds = %80
  br label %85

85:                                               ; preds = %84
  store ptr null, ptr %4, align 8
  br label %149

86:                                               ; No predecessors!
  br label %87

87:                                               ; preds = %86
  br label %88

88:                                               ; preds = %87, %68
  br label %89

89:                                               ; preds = %96, %88
  %90 = load ptr, ptr %3, align 8
  %91 = getelementptr inbounds %struct.H5T_t, ptr %90, i32 0, i32 1
  %92 = load ptr, ptr %91, align 8
  %93 = getelementptr inbounds %struct.H5T_shared_t, ptr %92, i32 0, i32 6
  %94 = load ptr, ptr %93, align 8
  %95 = icmp ne ptr %94, null
  br i1 %95, label %96, label %102

96:                                               ; preds = %89
  %97 = load ptr, ptr %3, align 8
  %98 = getelementptr inbounds %struct.H5T_t, ptr %97, i32 0, i32 1
  %99 = load ptr, ptr %98, align 8
  %100 = getelementptr inbounds %struct.H5T_shared_t, ptr %99, i32 0, i32 6
  %101 = load ptr, ptr %100, align 8
  store ptr %101, ptr %3, align 8
  br label %89

102:                                              ; preds = %89
  %103 = load ptr, ptr %3, align 8
  %104 = getelementptr inbounds %struct.H5T_t, ptr %103, i32 0, i32 1
  %105 = load ptr, ptr %104, align 8
  %106 = getelementptr inbounds %struct.H5T_shared_t, ptr %105, i32 0, i32 2
  %107 = load i32, ptr %106, align 4
  %108 = icmp ne i32 5, %107
  br i1 %108, label %109, label %124

109:                                              ; preds = %102
  br label %110

110:                                              ; preds = %109
  br label %111

111:                                              ; preds = %110
  br label %112

112:                                              ; preds = %111
  %113 = load i64, ptr @H5E_DATATYPE_g, align 8
  %114 = load i64, ptr @H5E_CANTINIT_g, align 8
  %115 = call i32 (ptr, ptr, i32, i64, i64, ptr, ...) @H5E_printf_stack(ptr noundef @.str, ptr noundef @__func__.H5Tget_tag, i32 noundef 89, i64 noundef %113, i64 noundef %114, ptr noundef @.str.8)
  br label %116

116:                                              ; preds = %112
  store i8 1, ptr %6, align 1
  %117 = load i8, ptr %6, align 1
  %118 = trunc i8 %117 to i1
  %119 = zext i1 %118 to i8
  store i8 %119, ptr %6, align 1
  br label %120

120:                                              ; preds = %116
  br label %121

121:                                              ; preds = %120
  store ptr null, ptr %4, align 8
  br label %149

122:                                              ; No predecessors!
  br label %123

123:                                              ; preds = %122
  br label %124

124:                                              ; preds = %123, %102
  %125 = load ptr, ptr %3, align 8
  %126 = getelementptr inbounds %struct.H5T_t, ptr %125, i32 0, i32 1
  %127 = load ptr, ptr %126, align 8
  %128 = getelementptr inbounds %struct.H5T_shared_t, ptr %127, i32 0, i32 8
  %129 = getelementptr inbounds %struct.H5T_opaque_t, ptr %128, i32 0, i32 0
  %130 = load ptr, ptr %129, align 8
  %131 = call noalias ptr @H5MM_strdup(ptr noundef %130)
  store ptr %131, ptr %4, align 8
  %132 = icmp eq ptr null, %131
  br i1 %132, label %133, label %148

133:                                              ; preds = %124
  br label %134

134:                                              ; preds = %133
  br label %135

135:                                              ; preds = %134
  br label %136

136:                                              ; preds = %135
  %137 = load i64, ptr @H5E_RESOURCE_g, align 8
  %138 = load i64, ptr @H5E_NOSPACE_g, align 8
  %139 = call i32 (ptr, ptr, i32, i64, i64, ptr, ...) @H5E_printf_stack(ptr noundef @.str, ptr noundef @__func__.H5Tget_tag, i32 noundef 93, i64 noundef %137, i64 noundef %138, ptr noundef @.str.9)
  br label %140

140:                                              ; preds = %136
  store i8 1, ptr %6, align 1
  %141 = load i8, ptr %6, align 1
  %142 = trunc i8 %141 to i1
  %143 = zext i1 %142 to i8
  store i8 %143, ptr %6, align 1
  br label %144

144:                                              ; preds = %140
  br label %145

145:                                              ; preds = %144
  store ptr null, ptr %4, align 8
  br label %149

146:                                              ; No predecessors!
  br label %147

147:                                              ; preds = %146
  br label %148

148:                                              ; preds = %147, %124
  br label %149

149:                                              ; preds = %148, %145, %121, %85, %64, %40
  %150 = load i8, ptr %5, align 1
  %151 = trunc i8 %150 to i1
  %152 = xor i1 %151, true
  %153 = xor i1 %152, true
  %154 = zext i1 %153 to i32
  %155 = sext i32 %154 to i64
  %156 = icmp ne i64 %155, 0
  br i1 %156, label %157, label %159

157:                                              ; preds = %149
  %158 = call i32 @H5CX_pop(i1 noundef zeroext true)
  store i8 0, ptr %5, align 1
  br label %159

159:                                              ; preds = %157, %149
  %160 = load i8, ptr %6, align 1
  %161 = trunc i8 %160 to i1
  %162 = xor i1 %161, true
  %163 = xor i1 %162, true
  %164 = zext i1 %163 to i32
  %165 = sext i32 %164 to i64
  %166 = icmp ne i64 %165, 0
  br i1 %166, label %167, label %169

167:                                              ; preds = %159
  %168 = call i32 @H5E_dump_api_stack()
  br label %169

169:                                              ; preds = %167, %159
  %170 = load ptr, ptr %4, align 8
  ret ptr %170
}