; Function Attrs: nounwind uwtable
define noalias ptr @H5Tget_tag(i64 noundef %0) local_unnamed_addr #0 {
  %2 = load i8, ptr @H5_libinit_g, align 1
  %3 = trunc i8 %2 to i1
  %4 = load i8, ptr @H5_libterm_g, align 1
  %5 = trunc i8 %4 to i1
  %6 = select i1 %3, i1 true, i1 %5
  br i1 %6, label %14, label %7

7:                                                ; preds = %1
  %8 = tail call i32 @H5_init_library() #3
  %9 = icmp slt i32 %8, 0
  br i1 %9, label %10, label %14

10:                                               ; preds = %7
  %11 = load i64, ptr @H5E_FUNC_g, align 8
  %12 = load i64, ptr @H5E_CANTINIT_g, align 8
  %13 = tail call i32 (ptr, ptr, i32, i64, i64, ptr, ...) @H5E_printf_stack(ptr noundef nonnull @.str, ptr noundef nonnull @__func__.H5Tget_tag, i32 noundef 81, i64 noundef %11, i64 noundef %12, ptr noundef nonnull @.str.1) #3
  br label %.thread27

14:                                               ; preds = %7, %1
  %15 = tail call i32 @H5CX_push() #3
  %16 = icmp slt i32 %15, 0
  br i1 %16, label %17, label %21

17:                                               ; preds = %14
  %18 = load i64, ptr @H5E_FUNC_g, align 8
  %19 = load i64, ptr @H5E_CANTSET_g, align 8
  %20 = tail call i32 (ptr, ptr, i32, i64, i64, ptr, ...) @H5E_printf_stack(ptr noundef nonnull @.str, ptr noundef nonnull @__func__.H5Tget_tag, i32 noundef 81, i64 noundef %18, i64 noundef %19, ptr noundef nonnull @.str.2) #3
  br label %.thread27

21:                                               ; preds = %14
  %22 = tail call i32 @H5E_clear_stack() #3
  %23 = tail call ptr @H5I_object_verify(i64 noundef %0, i32 noundef 3) #3
  %24 = icmp eq ptr %23, null
  br i1 %24, label %25, label %.preheader

25:                                               ; preds = %21
  %26 = load i64, ptr @H5E_ARGS_g, align 8
  %27 = load i64, ptr @H5E_BADTYPE_g, align 8
  %28 = tail call i32 (ptr, ptr, i32, i64, i64, ptr, ...) @H5E_printf_stack(ptr noundef nonnull @.str, ptr noundef nonnull @__func__.H5Tget_tag, i32 noundef 85, i64 noundef %26, i64 noundef %27, ptr noundef nonnull @.str.3) #3
  br label %.thread33

.preheader:                                       ; preds = %21, %.preheader
  %.014 = phi ptr [ %32, %.preheader ], [ %23, %21 ]
  %29 = getelementptr inbounds i8, ptr %.014, i64 40
  %30 = load ptr, ptr %29, align 8
  %31 = getelementptr inbounds i8, ptr %30, i64 32
  %32 = load ptr, ptr %31, align 8
  %.not = icmp eq ptr %32, null
  br i1 %.not, label %33, label %.preheader

33:                                               ; preds = %.preheader
  %34 = getelementptr inbounds i8, ptr %30, i64 12
  %35 = load i32, ptr %34, align 4
  %.not18 = icmp eq i32 %35, 5
  br i1 %.not18, label %40, label %36

36:                                               ; preds = %33
  %37 = load i64, ptr @H5E_DATATYPE_g, align 8
  %38 = load i64, ptr @H5E_CANTINIT_g, align 8
  %39 = tail call i32 (ptr, ptr, i32, i64, i64, ptr, ...) @H5E_printf_stack(ptr noundef nonnull @.str, ptr noundef nonnull @__func__.H5Tget_tag, i32 noundef 89, i64 noundef %37, i64 noundef %38, ptr noundef nonnull @.str.8) #3
  br label %.thread33

40:                                               ; preds = %33
  %41 = getelementptr inbounds i8, ptr %30, i64 48
  %42 = load ptr, ptr %41, align 8
  %43 = tail call noalias ptr @H5MM_strdup(ptr noundef %42) #3
  %44 = icmp eq ptr %43, null
  br i1 %44, label %45, label %50

45:                                               ; preds = %40
  %46 = load i64, ptr @H5E_RESOURCE_g, align 8
  %47 = load i64, ptr @H5E_NOSPACE_g, align 8
  %48 = tail call i32 (ptr, ptr, i32, i64, i64, ptr, ...) @H5E_printf_stack(ptr noundef nonnull @.str, ptr noundef nonnull @__func__.H5Tget_tag, i32 noundef 93, i64 noundef %46, i64 noundef %47, ptr noundef nonnull @.str.9) #3
  br label %.thread33

.thread33:                                        ; preds = %45, %36, %25
  %49 = tail call i32 @H5CX_pop(i1 noundef zeroext true) #3
  br label %.thread27

50:                                               ; preds = %40
  %51 = tail call i32 @H5CX_pop(i1 noundef zeroext true) #3
  br label %53

.thread27:                                        ; preds = %17, %10, %.thread33
  %52 = tail call i32 @H5E_dump_api_stack() #3
  br label %53

53:                                               ; preds = %50, %.thread27
  %.0132230 = phi ptr [ null, %.thread27 ], [ %43, %50 ]
  ret ptr %.0132230
}